target datalayout = "e-m:e-p270:32:32-p271:32:32-p272:64:64-i64:64-i128:128-f80:128-n8:16:32:64-S128"
target triple = "x86_64-pc-linux-gnu"

%struct._zend_array = type { %struct._zend_refcounted_h, %union.anon.0, i32, %union.anon.1, i32, i32, i32, i32, i64, ptr }
%struct._zend_refcounted_h = type { i32, %union.anon }
%union.anon = type { i32 }
%union.anon.0 = type { i32 }
%union.anon.1 = type { ptr }
%struct._zval_struct = type { %union._zend_value, %union.anon.3, %union.anon.6 }
%union._zend_value = type { i64 }
%union.anon.3 = type { i32 }
%union.anon.6 = type { i32 }
%struct._php_hash_ops = type { ptr, ptr, ptr, ptr, ptr, ptr, ptr, ptr, i64, i64, i64, i8 }
%struct._zend_object_handlers = type { i32, ptr, ptr, ptr, ptr, ptr, ptr, ptr, ptr, ptr, ptr, ptr, ptr, ptr, ptr, ptr, ptr, ptr, ptr, ptr, ptr, ptr, ptr, ptr, ptr }
%struct._php_hashcontext_object = type { ptr, ptr, i64, ptr, %struct._zend_object }
%struct._zend_object = type { %struct._zend_refcounted_h, i32, i32, ptr, ptr, ptr, [1 x %struct._zval_struct] }
%struct._zend_class_entry = type { i8, ptr, %union.anon.8, i32, i32, i32, i32, ptr, ptr, ptr, %struct._zend_array, %struct._zend_array, %struct._zend_array, ptr, ptr, ptr, ptr, ptr, ptr, ptr, ptr, ptr, ptr, ptr, ptr, ptr, ptr, ptr, ptr, ptr, ptr, ptr, %union.anon.9, ptr, ptr, ptr, ptr, i32, i32, i32, i32, %union.anon.10, ptr, ptr, ptr, ptr, i32, ptr, ptr, %union.anon.11 }
%union.anon.8 = type { ptr }
%union.anon.9 = type { ptr }
%union.anon.10 = type { ptr }
%union.anon.11 = type { %struct.anon.12 }
%struct.anon.12 = type { ptr, i32, i32 }

@php_hashcontext_handlers = internal global %struct._zend_object_handlers zeroinitializer, align 8
@zend_ce_value_error = external global ptr, align 8
@.str.118 = private unnamed_addr constant [37 x i8] c"Cannot clone a finalized HashContext\00", align 1

; Function Attrs: alwaysinline nounwind uwtable
define internal i64 @zend_object_properties_size(ptr noundef %0) #2 {
  %2 = alloca ptr, align 8
  store ptr %0, ptr %2, align 8, !tbaa !99
  %3 = load ptr, ptr %2, align 8, !tbaa !99
  %4 = getelementptr inbounds nuw %struct._zend_class_entry, ptr %3, i32 0, i32 5
  %5 = load i32, ptr %4, align 8, !tbaa !148
  %6 = load ptr, ptr %2, align 8, !tbaa !99
  %7 = getelementptr inbounds nuw %struct._zend_class_entry, ptr %6, i32 0, i32 4
  %8 = load i32, ptr %7, align 4, !tbaa !149
  %9 = and i32 %8, 2048
  %10 = icmp ne i32 %9, 0
  %11 = select i1 %10, i32 0, i32 1
  %12 = sub nsw i32 %5, %11
  %13 = sext i32 %12 to i64
  %14 = mul i64 16, %13
  ret i64 %14
}

; Function Attrs: alwaysinline nounwind uwtable
define internal ptr @zend_object_alloc(i64 noundef %0, ptr noundef %1) #2 {
  %3 = alloca i64, align 8
  %4 = alloca ptr, align 8
  %5 = alloca ptr, align 8
  store i64 %0, ptr %3, align 8, !tbaa !18
  store ptr %1, ptr %4, align 8, !tbaa !99
  call void @llvm.lifetime.start.p0(i64 8, ptr %5) #16
  %6 = load i64, ptr %3, align 8, !tbaa !18
  %7 = load ptr, ptr %4, align 8, !tbaa !99
  %8 = call i64 @zend_object_properties_size(ptr noundef %7)
  %9 = add i64 %6, %8
  %10 = call noalias ptr @_emalloc(i64 noundef %9) #19
  store ptr %10, ptr %5, align 8, !tbaa !20
  %11 = load ptr, ptr %5, align 8, !tbaa !20
  %12 = load i64, ptr %3, align 8, !tbaa !18
  %13 = sub i64 %12, 56
  call void @llvm.memset.p0.i64(ptr align 1 %11, i8 0, i64 %13, i1 false)
  %14 = load ptr, ptr %5, align 8, !tbaa !20
  call void @llvm.lifetime.end.p0(i64 8, ptr %5) #16
  ret ptr %14
}

; Function Attrs: inlinehint nounwind uwtable
define internal ptr @php_hash_alloc_context(ptr noundef %0) #7 {
  %2 = alloca ptr, align 8
  store ptr %0, ptr %2, align 8, !tbaa !9
  %3 = load ptr, ptr %2, align 8, !tbaa !9
  %4 = getelementptr inbounds nuw %struct._php_hash_ops, ptr %3, i32 0, i32 10
  %5 = load i64, ptr %4, align 8, !tbaa !21
  %6 = call noalias ptr @_ecalloc(i64 noundef 1, i64 noundef %5) #20
  ret ptr %6
}

; Function Attrs: nounwind uwtable
define internal ptr @php_hashcontext_create(ptr noundef %0) #0 {
  %2 = alloca ptr, align 8
  %3 = alloca ptr, align 8
  %4 = alloca ptr, align 8
  store ptr %0, ptr %2, align 8, !tbaa !99
  call void @llvm.lifetime.start.p0(i64 8, ptr %3) #16
  %5 = load ptr, ptr %2, align 8, !tbaa !99
  %6 = call ptr @zend_object_alloc(i64 noundef 88, ptr noundef %5)
  store ptr %6, ptr %3, align 8, !tbaa !24
  call void @llvm.lifetime.start.p0(i64 8, ptr %4) #16
  %7 = load ptr, ptr %3, align 8, !tbaa !24
  %8 = getelementptr inbounds nuw %struct._php_hashcontext_object, ptr %7, i32 0, i32 4
  store ptr %8, ptr %4, align 8, !tbaa !59
  %9 = load ptr, ptr %4, align 8, !tbaa !59
  %10 = load ptr, ptr %2, align 8, !tbaa !99
  call void @zend_object_std_init(ptr noundef %9, ptr noundef %10)
  %11 = load ptr, ptr %4, align 8, !tbaa !59
  %12 = load ptr, ptr %2, align 8, !tbaa !99
  call void @object_properties_init(ptr noundef %11, ptr noundef %12)
  %13 = load ptr, ptr %4, align 8, !tbaa !59
  %14 = getelementptr inbounds nuw %struct._zend_object, ptr %13, i32 0, i32 4
  store ptr @php_hashcontext_handlers, ptr %14, align 8, !tbaa !62
  %15 = load ptr, ptr %4, align 8, !tbaa !59
  call void @llvm.lifetime.end.p0(i64 8, ptr %4) #16
  call void @llvm.lifetime.end.p0(i64 8, ptr %3) #16
  ret ptr %15
}

; Function Attrs: inlinehint nounwind uwtable
define internal ptr @php_hashcontext_from_object(ptr noundef %0) #7 {
  %2 = alloca ptr, align 8
  store ptr %0, ptr %2, align 8, !tbaa !59
  %3 = load ptr, ptr %2, align 8, !tbaa !59
  %4 = getelementptr inbounds %struct._zend_object, ptr %3, i64 1
  %5 = getelementptr inbounds %struct._php_hashcontext_object, ptr %4, i64 -1
  ret ptr %5
}

; Function Attrs: nounwind uwtable
define internal ptr @php_hashcontext_clone(ptr noundef %0) #0 {
  %2 = alloca ptr, align 8
  %3 = alloca ptr, align 8
  %4 = alloca ptr, align 8
  %5 = alloca ptr, align 8
  %6 = alloca ptr, align 8
  %7 = alloca i32, align 4
  store ptr %0, ptr %3, align 8, !tbaa !59
  call void @llvm.lifetime.start.p0(i64 8, ptr %4) #16
  %8 = load ptr, ptr %3, align 8, !tbaa !59
  %9 = call ptr @php_hashcontext_from_object(ptr noundef %8)
  store ptr %9, ptr %4, align 8, !tbaa !24
  call void @llvm.lifetime.start.p0(i64 8, ptr %5) #16
  %10 = load ptr, ptr %3, align 8, !tbaa !59
  %11 = getelementptr inbounds nuw %struct._zend_object, ptr %10, i32 0, i32 3
  %12 = load ptr, ptr %11, align 8, !tbaa !141
  %13 = call ptr @php_hashcontext_create(ptr noundef %12)
  store ptr %13, ptr %5, align 8, !tbaa !59
  call void @llvm.lifetime.start.p0(i64 8, ptr %6) #16
  %14 = load ptr, ptr %5, align 8, !tbaa !59
  %15 = call ptr @php_hashcontext_from_object(ptr noundef %14)
  store ptr %15, ptr %6, align 8, !tbaa !24
  %16 = load ptr, ptr %4, align 8, !tbaa !24
  %17 = getelementptr inbounds nuw %struct._php_hashcontext_object, ptr %16, i32 0, i32 1
  %18 = load ptr, ptr %17, align 8, !tbaa !26
  %19 = icmp ne ptr %18, null
  br i1 %19, label %24, label %20

20:                                               ; preds = %1
  %21 = load ptr, ptr @zend_ce_value_error, align 8, !tbaa !99
  %22 = call ptr @zend_throw_exception(ptr noundef %21, ptr noundef @.str.118, i64 noundef 0)
  %23 = load ptr, ptr %5, align 8, !tbaa !59
  store ptr %23, ptr %2, align 8
  store i32 1, ptr %7, align 4
  br label %101

24:                                               ; preds = %1
  %25 = load ptr, ptr %5, align 8, !tbaa !59
  %26 = load ptr, ptr %3, align 8, !tbaa !59
  call void @zend_objects_clone_members(ptr noundef %25, ptr noundef %26)
  %27 = load ptr, ptr %4, align 8, !tbaa !24
  %28 = getelementptr inbounds nuw %struct._php_hashcontext_object, ptr %27, i32 0, i32 0
  %29 = load ptr, ptr %28, align 8, !tbaa !32
  %30 = load ptr, ptr %6, align 8, !tbaa !24
  %31 = getelementptr inbounds nuw %struct._php_hashcontext_object, ptr %30, i32 0, i32 0
  store ptr %29, ptr %31, align 8, !tbaa !32
  %32 = load ptr, ptr %4, align 8, !tbaa !24
  %33 = getelementptr inbounds nuw %struct._php_hashcontext_object, ptr %32, i32 0, i32 2
  %34 = load i64, ptr %33, align 8, !tbaa !100
  %35 = load ptr, ptr %6, align 8, !tbaa !24
  %36 = getelementptr inbounds nuw %struct._php_hashcontext_object, ptr %35, i32 0, i32 2
  store i64 %34, ptr %36, align 8, !tbaa !100
  %37 = load ptr, ptr %6, align 8, !tbaa !24
  %38 = getelementptr inbounds nuw %struct._php_hashcontext_object, ptr %37, i32 0, i32 0
  %39 = load ptr, ptr %38, align 8, !tbaa !32
  %40 = call ptr @php_hash_alloc_context(ptr noundef %39)
  %41 = load ptr, ptr %6, align 8, !tbaa !24
  %42 = getelementptr inbounds nuw %struct._php_hashcontext_object, ptr %41, i32 0, i32 1
  store ptr %40, ptr %42, align 8, !tbaa !26
  %43 = load ptr, ptr %6, align 8, !tbaa !24
  %44 = getelementptr inbounds nuw %struct._php_hashcontext_object, ptr %43, i32 0, i32 0
  %45 = load ptr, ptr %44, align 8, !tbaa !32
  %46 = getelementptr inbounds nuw %struct._php_hash_ops, ptr %45, i32 0, i32 1
  %47 = load ptr, ptr %46, align 8, !tbaa !94
  %48 = load ptr, ptr %6, align 8, !tbaa !24
  %49 = getelementptr inbounds nuw %struct._php_hashcontext_object, ptr %48, i32 0, i32 1
  %50 = load ptr, ptr %49, align 8, !tbaa !26
  call void %47(ptr noundef %50, ptr noundef null)
  %51 = load ptr, ptr %6, align 8, !tbaa !24
  %52 = getelementptr inbounds nuw %struct._php_hashcontext_object, ptr %51, i32 0, i32 0
  %53 = load ptr, ptr %52, align 8, !tbaa !32
  %54 = getelementptr inbounds nuw %struct._php_hash_ops, ptr %53, i32 0, i32 4
  %55 = load ptr, ptr %54, align 8, !tbaa !142
  %56 = load ptr, ptr %6, align 8, !tbaa !24
  %57 = getelementptr inbounds nuw %struct._php_hashcontext_object, ptr %56, i32 0, i32 0
  %58 = load ptr, ptr %57, align 8, !tbaa !32
  %59 = load ptr, ptr %4, align 8, !tbaa !24
  %60 = getelementptr inbounds nuw %struct._php_hashcontext_object, ptr %59, i32 0, i32 1
  %61 = load ptr, ptr %60, align 8, !tbaa !26
  %62 = load ptr, ptr %6, align 8, !tbaa !24
  %63 = getelementptr inbounds nuw %struct._php_hashcontext_object, ptr %62, i32 0, i32 1
  %64 = load ptr, ptr %63, align 8, !tbaa !26
  %65 = call i32 %55(ptr noundef %58, ptr noundef %61, ptr noundef %64)
  %66 = icmp ne i32 0, %65
  br i1 %66, label %67, label %74

67:                                               ; preds = %24
  %68 = load ptr, ptr %6, align 8, !tbaa !24
  %69 = getelementptr inbounds nuw %struct._php_hashcontext_object, ptr %68, i32 0, i32 1
  %70 = load ptr, ptr %69, align 8, !tbaa !26
  call void @_efree(ptr noundef %70)
  %71 = load ptr, ptr %6, align 8, !tbaa !24
  %72 = getelementptr inbounds nuw %struct._php_hashcontext_object, ptr %71, i32 0, i32 1
  store ptr null, ptr %72, align 8, !tbaa !26
  %73 = load ptr, ptr %5, align 8, !tbaa !59
  store ptr %73, ptr %2, align 8
  store i32 1, ptr %7, align 4
  br label %101

74:                                               ; preds = %24
  %75 = load ptr, ptr %6, align 8, !tbaa !24
  %76 = getelementptr inbounds nuw %struct._php_hashcontext_object, ptr %75, i32 0, i32 0
  %77 = load ptr, ptr %76, align 8, !tbaa !32
  %78 = getelementptr inbounds nuw %struct._php_hash_ops, ptr %77, i32 0, i32 9
  %79 = load i64, ptr %78, align 8, !tbaa !98
  %80 = call noalias ptr @_ecalloc(i64 noundef 1, i64 noundef %79) #20
  %81 = load ptr, ptr %6, align 8, !tbaa !24
  %82 = getelementptr inbounds nuw %struct._php_hashcontext_object, ptr %81, i32 0, i32 3
  store ptr %80, ptr %82, align 8, !tbaa !101
  %83 = load ptr, ptr %4, align 8, !tbaa !24
  %84 = getelementptr inbounds nuw %struct._php_hashcontext_object, ptr %83, i32 0, i32 3
  %85 = load ptr, ptr %84, align 8, !tbaa !101
  %86 = icmp ne ptr %85, null
  br i1 %86, label %87, label %99

87:                                               ; preds = %74
  %88 = load ptr, ptr %6, align 8, !tbaa !24
  %89 = getelementptr inbounds nuw %struct._php_hashcontext_object, ptr %88, i32 0, i32 3
  %90 = load ptr, ptr %89, align 8, !tbaa !101
  %91 = load ptr, ptr %4, align 8, !tbaa !24
  %92 = getelementptr inbounds nuw %struct._php_hashcontext_object, ptr %91, i32 0, i32 3
  %93 = load ptr, ptr %92, align 8, !tbaa !101
  %94 = load ptr, ptr %6, align 8, !tbaa !24
  %95 = getelementptr inbounds nuw %struct._php_hashcontext_object, ptr %94, i32 0, i32 0
  %96 = load ptr, ptr %95, align 8, !tbaa !32
  %97 = getelementptr inbounds nuw %struct._php_hash_ops, ptr %96, i32 0, i32 9
  %98 = load i64, ptr %97, align 8, !tbaa !98
  call void @llvm.memcpy.p0.p0.i64(ptr align 1 %90, ptr align 1 %93, i64 %98, i1 false)
  br label %99

99:                                               ; preds = %87, %74
  %100 = load ptr, ptr %5, align 8, !tbaa !59
  store ptr %100, ptr %2, align 8
  store i32 1, ptr %7, align 4
  br label %101

101:                                              ; preds = %99, %67, %20
  call void @llvm.lifetime.end.p0(i64 8, ptr %6) #16
  call void @llvm.lifetime.end.p0(i64 8, ptr %5) #16
  call void @llvm.lifetime.end.p0(i64 8, ptr %4) #16
  %102 = load ptr, ptr %2, align 8
  ret ptr %102
}