; Function Attrs: nounwind uwtable
define internal noundef ptr @php_hashcontext_clone(ptr noundef %0) #0 {
  %2 = getelementptr inbounds nuw i8, ptr %0, i64 16
  %3 = load ptr, ptr %2, align 8, !tbaa !130
  %4 = getelementptr inbounds nuw i8, ptr %3, i64 32
  %5 = load i32, ptr %4, align 8, !tbaa !128
  %6 = getelementptr inbounds nuw i8, ptr %3, i64 28
  %7 = load i32, ptr %6, align 4, !tbaa !129
  %8 = lshr i32 %7, 11
  %.lobit.i.i = and i32 %8, 1
  %9 = xor i32 %.lobit.i.i, 1
  %10 = sub nsw i32 %5, %9
  %11 = sext i32 %10 to i64
  %12 = shl nsw i64 %11, 4
  %13 = add nsw i64 %12, 88
  %14 = tail call noalias ptr @_emalloc(i64 noundef %13) #19
  tail call void @llvm.memset.p0.i64(ptr noundef nonnull align 1 dereferenceable(32) %14, i8 0, i64 32, i1 false)
  %15 = getelementptr inbounds nuw i8, ptr %14, i64 32
  tail call void @zend_object_std_init(ptr noundef nonnull %15, ptr noundef %3) #16
  tail call void @object_properties_init(ptr noundef nonnull %15, ptr noundef %3) #16
  %16 = getelementptr inbounds nuw i8, ptr %14, i64 56
  store ptr @php_hashcontext_handlers, ptr %16, align 8, !tbaa !89
  %17 = getelementptr inbounds i8, ptr %0, i64 -24
  %18 = load ptr, ptr %17, align 8, !tbaa !19
  %.not = icmp eq ptr %18, null
  br i1 %.not, label %19, label %22

19:                                               ; preds = %1
  %20 = load ptr, ptr @zend_ce_value_error, align 8, !tbaa !85
  %21 = tail call ptr @zend_throw_exception(ptr noundef %20, ptr noundef nonnull @.str.118, i64 noundef 0) #16
  br label %54

22:                                               ; preds = %1
  %23 = getelementptr inbounds i8, ptr %0, i64 -32
  tail call void @zend_objects_clone_members(ptr noundef nonnull %15, ptr noundef nonnull %0) #16
  %24 = load ptr, ptr %23, align 8, !tbaa !26
  store ptr %24, ptr %14, align 8, !tbaa !26
  %25 = getelementptr inbounds i8, ptr %0, i64 -16
  %26 = load i64, ptr %25, align 8, !tbaa !86
  %27 = getelementptr inbounds nuw i8, ptr %14, i64 16
  store i64 %26, ptr %27, align 8, !tbaa !86
  %28 = getelementptr i8, ptr %24, i64 80
  %.val = load i64, ptr %28, align 8, !tbaa !13
  %29 = tail call noalias ptr @_ecalloc(i64 noundef 1, i64 noundef %.val) #20
  %30 = getelementptr inbounds nuw i8, ptr %14, i64 8
  store ptr %29, ptr %30, align 8, !tbaa !19
  %31 = load ptr, ptr %14, align 8, !tbaa !26
  %32 = getelementptr inbounds nuw i8, ptr %31, i64 8
  %33 = load ptr, ptr %32, align 8, !tbaa !79
  tail call void %33(ptr noundef %29, ptr noundef null) #16
  %34 = load ptr, ptr %14, align 8, !tbaa !26
  %35 = getelementptr inbounds nuw i8, ptr %34, i64 32
  %36 = load ptr, ptr %35, align 8, !tbaa !131
  %37 = load ptr, ptr %17, align 8, !tbaa !19
  %38 = load ptr, ptr %30, align 8, !tbaa !19
  %39 = tail call i32 %36(ptr noundef %34, ptr noundef %37, ptr noundef %38) #16
  %.not30 = icmp eq i32 %39, 0
  br i1 %.not30, label %42, label %40

40:                                               ; preds = %22
  %41 = load ptr, ptr %30, align 8, !tbaa !19
  tail call void @_efree(ptr noundef %41) #16
  store ptr null, ptr %30, align 8, !tbaa !19
  br label %54

42:                                               ; preds = %22
  %43 = load ptr, ptr %14, align 8, !tbaa !26
  %44 = getelementptr inbounds nuw i8, ptr %43, i64 72
  %45 = load i64, ptr %44, align 8, !tbaa !83
  %46 = tail call noalias ptr @_ecalloc(i64 noundef 1, i64 noundef %45) #20
  %47 = getelementptr inbounds nuw i8, ptr %14, i64 24
  store ptr %46, ptr %47, align 8, !tbaa !87
  %48 = getelementptr inbounds i8, ptr %0, i64 -8
  %49 = load ptr, ptr %48, align 8, !tbaa !87
  %.not31 = icmp eq ptr %49, null
  br i1 %.not31, label %54, label %50

50:                                               ; preds = %42
  %51 = load ptr, ptr %14, align 8, !tbaa !26
  %52 = getelementptr inbounds nuw i8, ptr %51, i64 72
  %53 = load i64, ptr %52, align 8, !tbaa !83
  tail call void @llvm.memcpy.p0.p0.i64(ptr align 1 %46, ptr nonnull align 1 %49, i64 %53, i1 false)
  br label %54

54:                                               ; preds = %42, %50, %40, %19
  ret ptr %15
}